target datalayout = "e-m:e-p270:32:32-p271:32:32-p272:64:64-i64:64-i128:128-f80:128-n8:16:32:64-S128"
target triple = "x86_64-unknown-linux-gnu"

%"class.rocksdb::PointLockTrackerFactory" = type { %"class.rocksdb::LockTrackerFactory" }
%"class.rocksdb::LockTrackerFactory" = type { ptr }
%"class.rocksdb::OptimisticTransaction" = type { %"class.rocksdb::TransactionBaseImpl", ptr }
%"class.rocksdb::TransactionBaseImpl" = type { %"class.rocksdb::Transaction", ptr, ptr, %"struct.rocksdb::WriteOptions", ptr, ptr, i64, %"class.std::shared_ptr", i64, i64, i64, %"class.rocksdb::WriteBatchWithIndex", %"class.std::unique_ptr.5", %"class.std::unique_ptr.13", %"class.rocksdb::WriteBatch", i8, i8, %"class.std::shared_ptr.38" }
%"class.rocksdb::Transaction" = type { ptr, i64, %"class.std::__cxx11::basic_string", %"struct.std::atomic", i64 }
%"class.std::__cxx11::basic_string" = type { %"struct.std::__cxx11::basic_string<char>::_Alloc_hider", i64, %union.anon }
%"struct.std::__cxx11::basic_string<char>::_Alloc_hider" = type { ptr }
%union.anon = type { i64, [8 x i8] }
%"struct.std::atomic" = type { i32 }
%"struct.rocksdb::WriteOptions" = type { i8, i8, i8, i8, i8, i8, i32, i64 }
%"class.std::shared_ptr" = type { %"class.std::__shared_ptr" }
%"class.std::__shared_ptr" = type { ptr, %"class.std::__shared_count" }
%"class.std::__shared_count" = type { ptr }
%"class.rocksdb::WriteBatchWithIndex" = type { %"class.rocksdb::WriteBatchBase", %"class.std::unique_ptr" }
%"class.rocksdb::WriteBatchBase" = type { ptr }
%"class.std::unique_ptr" = type { %"struct.std::__uniq_ptr_data" }
%"struct.std::__uniq_ptr_data" = type { %"class.std::__uniq_ptr_impl" }
%"class.std::__uniq_ptr_impl" = type { %"class.std::tuple" }
%"class.std::tuple" = type { %"struct.std::_Tuple_impl" }
%"struct.std::_Tuple_impl" = type { %"struct.std::_Head_base.4" }
%"struct.std::_Head_base.4" = type { ptr }
%"class.std::unique_ptr.5" = type { %"struct.std::__uniq_ptr_data.6" }
%"struct.std::__uniq_ptr_data.6" = type { %"class.std::__uniq_ptr_impl.7" }
%"class.std::__uniq_ptr_impl.7" = type { %"class.std::tuple.8" }
%"class.std::tuple.8" = type { %"struct.std::_Tuple_impl.9" }
%"struct.std::_Tuple_impl.9" = type { %"struct.std::_Head_base.12" }
%"struct.std::_Head_base.12" = type { ptr }
%"class.std::unique_ptr.13" = type { %"struct.std::__uniq_ptr_data.14" }
%"struct.std::__uniq_ptr_data.14" = type { %"class.std::__uniq_ptr_impl.15" }
%"class.std::__uniq_ptr_impl.15" = type { %"class.std::tuple.16" }
%"class.std::tuple.16" = type { %"struct.std::_Tuple_impl.17" }
%"struct.std::_Tuple_impl.17" = type { %"struct.std::_Head_base.20" }
%"struct.std::_Head_base.20" = type { ptr }
%"class.rocksdb::WriteBatch" = type { %"class.rocksdb::WriteBatchBase", %"class.std::unique_ptr.21", %"struct.rocksdb::SavePoint", i8, i8, i8, %"struct.std::atomic.29", i64, %"class.std::unique_ptr.30", i64, %"class.std::__cxx11::basic_string" }
%"class.std::unique_ptr.21" = type { %"struct.std::__uniq_ptr_data.22" }
%"struct.std::__uniq_ptr_data.22" = type { %"class.std::__uniq_ptr_impl.23" }
%"class.std::__uniq_ptr_impl.23" = type { %"class.std::tuple.24" }
%"class.std::tuple.24" = type { %"struct.std::_Tuple_impl.25" }
%"struct.std::_Tuple_impl.25" = type { %"struct.std::_Head_base.28" }
%"struct.std::_Head_base.28" = type { ptr }
%"struct.rocksdb::SavePoint" = type { i64, i32, i32 }
%"struct.std::atomic.29" = type { %"struct.std::__atomic_base" }
%"struct.std::__atomic_base" = type { i32 }
%"class.std::unique_ptr.30" = type { %"struct.std::__uniq_ptr_data.31" }
%"struct.std::__uniq_ptr_data.31" = type { %"class.std::__uniq_ptr_impl.32" }
%"class.std::__uniq_ptr_impl.32" = type { %"class.std::tuple.33" }
%"class.std::tuple.33" = type { %"struct.std::_Tuple_impl.34" }
%"struct.std::_Tuple_impl.34" = type { %"struct.std::_Head_base.37" }
%"struct.std::_Head_base.37" = type { ptr }
%"class.std::shared_ptr.38" = type { %"class.std::__shared_ptr.39" }
%"class.std::__shared_ptr.39" = type { ptr, %"class.std::__shared_count" }
%"struct.rocksdb::OptimisticTransactionOptions" = type { i8, ptr }

@__dso_handle = external hidden global i8
@_ZZN7rocksdb23PointLockTrackerFactory3GetEvE8instance = linkonce_odr global %"class.rocksdb::PointLockTrackerFactory" zeroinitializer, comdat, align 8
@_ZGVZN7rocksdb23PointLockTrackerFactory3GetEvE8instance = linkonce_odr global i64 0, comdat, align 8
@_ZTVN7rocksdb23PointLockTrackerFactoryE = linkonce_odr unnamed_addr constant { [5 x ptr] } { [5 x ptr] [ptr null, ptr null, ptr @_ZNK7rocksdb23PointLockTrackerFactory6CreateEv, ptr @_ZN7rocksdb23PointLockTrackerFactoryD2Ev, ptr @_ZN7rocksdb23PointLockTrackerFactoryD0Ev] }, comdat, align 8
@_ZTVN7rocksdb18LockTrackerFactoryE = linkonce_odr unnamed_addr constant { [5 x ptr] } { [5 x ptr] [ptr null, ptr null, ptr @__cxa_pure_virtual, ptr @_ZN7rocksdb18LockTrackerFactoryD2Ev, ptr @_ZN7rocksdb18LockTrackerFactoryD0Ev] }, comdat, align 8

; Function Attrs: mustprogress nounwind uwtable
define linkonce_odr void @_ZN7rocksdb18LockTrackerFactoryC2Ev(ptr noundef nonnull align 8 dereferenceable(8) %this) unnamed_addr #1 comdat align 2 {
entry:
  %this.addr = alloca ptr, align 8
  store ptr %this, ptr %this.addr, align 8
  %this1 = load ptr, ptr %this.addr, align 8
  store ptr getelementptr inbounds ({ [5 x ptr] }, ptr @_ZTVN7rocksdb18LockTrackerFactoryE, i32 0, i32 0, i32 2), ptr %this1, align 8
  ret void
}

; Function Attrs: mustprogress nounwind uwtable
define linkonce_odr void @_ZN7rocksdb23PointLockTrackerFactoryC2Ev(ptr noundef nonnull align 8 dereferenceable(8) %this) unnamed_addr #1 comdat align 2 {
entry:
  %this.addr = alloca ptr, align 8
  store ptr %this, ptr %this.addr, align 8
  %this1 = load ptr, ptr %this.addr, align 8
  call void @_ZN7rocksdb18LockTrackerFactoryC2Ev(ptr noundef nonnull align 8 dereferenceable(8) %this1) #3
  store ptr getelementptr inbounds ({ [5 x ptr] }, ptr @_ZTVN7rocksdb23PointLockTrackerFactoryE, i32 0, i32 0, i32 2), ptr %this1, align 8
  ret void
}

; Function Attrs: mustprogress uwtable
define void @_ZN7rocksdb21OptimisticTransaction10InitializeERKNS_28OptimisticTransactionOptionsE(ptr noundef nonnull align 8 dereferenceable(328) %this, ptr noundef nonnull align 8 dereferenceable(16) %txn_options) #0 align 2 {
entry:
  %this.addr = alloca ptr, align 8
  %txn_options.addr = alloca ptr, align 8
  store ptr %this, ptr %this.addr, align 8
  store ptr %txn_options, ptr %txn_options.addr, align 8
  %this1 = load ptr, ptr %this.addr, align 8
  %0 = load ptr, ptr %txn_options.addr, align 8
  %set_snapshot = getelementptr inbounds %"struct.rocksdb::OptimisticTransactionOptions", ptr %0, i32 0, i32 0
  %1 = load i8, ptr %set_snapshot, align 8
  %tobool = trunc i8 %1 to i1
  br i1 %tobool, label %if.then, label %if.end

if.then:                                          ; preds = %entry
  %vtable = load ptr, ptr %this1, align 8
  %vfn = getelementptr inbounds ptr, ptr %vtable, i64 2
  %2 = load ptr, ptr %vfn, align 8
  call void %2(ptr noundef nonnull align 8 dereferenceable(320) %this1)
  br label %if.end

if.end:                                           ; preds = %if.then, %entry
  ret void
}

; Function Attrs: mustprogress uwtable
define linkonce_odr noundef nonnull align 8 dereferenceable(8) ptr @_ZN7rocksdb23PointLockTrackerFactory3GetEv() #0 comdat align 2 personality ptr @__gxx_personality_v0 {
entry:
  %exn.slot = alloca ptr, align 8
  %ehselector.slot = alloca i32, align 4
  %0 = load atomic i8, ptr @_ZGVZN7rocksdb23PointLockTrackerFactory3GetEvE8instance acquire, align 8
  %guard.uninitialized = icmp eq i8 %0, 0
  br i1 %guard.uninitialized, label %init.check, label %init.end, !prof !4

init.check:                                       ; preds = %entry
  %1 = call i32 @__cxa_guard_acquire(ptr @_ZGVZN7rocksdb23PointLockTrackerFactory3GetEvE8instance) #3
  %tobool = icmp ne i32 %1, 0
  br i1 %tobool, label %init, label %init.end

init:                                             ; preds = %init.check
  invoke void @_ZN7rocksdb23PointLockTrackerFactoryC2Ev(ptr noundef nonnull align 8 dereferenceable(8) @_ZZN7rocksdb23PointLockTrackerFactory3GetEvE8instance)
          to label %invoke.cont unwind label %lpad

invoke.cont:                                      ; preds = %init
  %2 = call i32 @__cxa_atexit(ptr @_ZN7rocksdb23PointLockTrackerFactoryD2Ev, ptr @_ZZN7rocksdb23PointLockTrackerFactory3GetEvE8instance, ptr @__dso_handle) #3
  call void @__cxa_guard_release(ptr @_ZGVZN7rocksdb23PointLockTrackerFactory3GetEvE8instance) #3
  br label %init.end

init.end:                                         ; preds = %invoke.cont, %init.check, %entry
  ret ptr @_ZZN7rocksdb23PointLockTrackerFactory3GetEvE8instance

lpad:                                             ; preds = %init
  %3 = landingpad { ptr, i32 }
          cleanup
  %4 = extractvalue { ptr, i32 } %3, 0
  store ptr %4, ptr %exn.slot, align 8
  %5 = extractvalue { ptr, i32 } %3, 1
  store i32 %5, ptr %ehselector.slot, align 4
  call void @__cxa_guard_abort(ptr @_ZGVZN7rocksdb23PointLockTrackerFactory3GetEvE8instance) #3
  br label %eh.resume

eh.resume:                                        ; preds = %lpad
  %exn = load ptr, ptr %exn.slot, align 8
  %sel = load i32, ptr %ehselector.slot, align 4
  %lpad.val = insertvalue { ptr, i32 } poison, ptr %exn, 0
  %lpad.val1 = insertvalue { ptr, i32 } %lpad.val, i32 %sel, 1
  resume { ptr, i32 } %lpad.val1
}

; Function Attrs: mustprogress uwtable
define void @_ZN7rocksdb21OptimisticTransactionC2EPNS_23OptimisticTransactionDBERKNS_12WriteOptionsERKNS_28OptimisticTransactionOptionsE(ptr noundef nonnull align 8 dereferenceable(328) %this, ptr noundef %txn_db, ptr noundef nonnull align 8 dereferenceable(24) %write_options, ptr noundef nonnull align 8 dereferenceable(16) %txn_options) unnamed_addr #0 align 2 personality ptr @__gxx_personality_v0 {
entry:
  %this.addr = alloca ptr, align 8
  %txn_db.addr = alloca ptr, align 8
  %write_options.addr = alloca ptr, align 8
  %txn_options.addr = alloca ptr, align 8
  %exn.slot = alloca ptr, align 8
  %ehselector.slot = alloca i32, align 4
  store ptr %this, ptr %this.addr, align 8
  store ptr %txn_db, ptr %txn_db.addr, align 8
  store ptr %write_options, ptr %write_options.addr, align 8
  store ptr %txn_options, ptr %txn_options.addr, align 8
  %this1 = load ptr, ptr %this.addr, align 8
  %0 = load ptr, ptr %txn_db.addr, align 8
  %vtable = load ptr, ptr %0, align 8
  %vfn = getelementptr inbounds ptr, ptr %vtable, i64 150
  %1 = load ptr, ptr %vfn, align 8
  %call = call noundef ptr %1(ptr noundef nonnull align 8 dereferenceable(32) %0)
  %2 = load ptr, ptr %write_options.addr, align 8
  %call2 = call noundef nonnull align 8 dereferenceable(8) ptr @_ZN7rocksdb23PointLockTrackerFactory3GetEv()
  call void @_ZN7rocksdb19TransactionBaseImplC2EPNS_2DBERKNS_12WriteOptionsERKNS_18LockTrackerFactoryE(ptr noundef nonnull align 8 dereferenceable(320) %this1, ptr noundef %call, ptr noundef nonnull align 8 dereferenceable(24) %2, ptr noundef nonnull align 8 dereferenceable(8) %call2)
  store ptr getelementptr inbounds ({ [90 x ptr] }, ptr @_ZTVN7rocksdb21OptimisticTransactionE, i32 0, i32 0, i32 2), ptr %this1, align 8
  %txn_db_ = getelementptr inbounds %"class.rocksdb::OptimisticTransaction", ptr %this1, i32 0, i32 1
  %3 = load ptr, ptr %txn_db.addr, align 8
  store ptr %3, ptr %txn_db_, align 8
  %4 = load ptr, ptr %txn_options.addr, align 8
  invoke void @_ZN7rocksdb21OptimisticTransaction10InitializeERKNS_28OptimisticTransactionOptionsE(ptr noundef nonnull align 8 dereferenceable(328) %this1, ptr noundef nonnull align 8 dereferenceable(16) %4)
          to label %invoke.cont unwind label %lpad

invoke.cont:                                      ; preds = %entry
  ret void

lpad:                                             ; preds = %entry
  %5 = landingpad { ptr, i32 }
          cleanup
  %6 = extractvalue { ptr, i32 } %5, 0
  store ptr %6, ptr %exn.slot, align 8
  %7 = extractvalue { ptr, i32 } %5, 1
  store i32 %7, ptr %ehselector.slot, align 4
  call void @_ZN7rocksdb19TransactionBaseImplD2Ev(ptr noundef nonnull align 8 dereferenceable(320) %this1) #3
  br label %eh.resume

eh.resume:                                        ; preds = %lpad
  %exn = load ptr, ptr %exn.slot, align 8
  %sel = load i32, ptr %ehselector.slot, align 4
  %lpad.val = insertvalue { ptr, i32 } poison, ptr %exn, 0
  %lpad.val3 = insertvalue { ptr, i32 } %lpad.val, i32 %sel, 1
  resume { ptr, i32 } %lpad.val3
}