; Function Attrs: mustprogress uwtable
define void @_ZN7rocksdb21OptimisticTransactionC2EPNS_23OptimisticTransactionDBERKNS_12WriteOptionsERKNS_28OptimisticTransactionOptionsE(ptr noundef nonnull align 8 dereferenceable(328) %this, ptr noundef %txn_db, ptr noundef nonnull align 8 dereferenceable(24) %write_options, ptr nocapture noundef nonnull readonly align 8 dereferenceable(16) %txn_options) unnamed_addr #2 align 2 personality ptr @__gxx_personality_v0 {
entry:
  %vtable = load ptr, ptr %txn_db, align 8
  %vfn = getelementptr inbounds i8, ptr %vtable, i64 1200
  %0 = load ptr, ptr %vfn, align 8
  %call = tail call noundef ptr %0(ptr noundef nonnull align 8 dereferenceable(32) %txn_db)
  %1 = load atomic i8, ptr @_ZGVZN7rocksdb23PointLockTrackerFactory3GetEvE8instance acquire, align 8
  %guard.uninitialized.i = icmp eq i8 %1, 0
  br i1 %guard.uninitialized.i, label %init.check.i, label %_ZN7rocksdb23PointLockTrackerFactory3GetEv.exit, !prof !4

init.check.i:                                     ; preds = %entry
  %2 = tail call i32 @__cxa_guard_acquire(ptr nonnull @_ZGVZN7rocksdb23PointLockTrackerFactory3GetEvE8instance) #17
  %tobool.not.i = icmp eq i32 %2, 0
  br i1 %tobool.not.i, label %_ZN7rocksdb23PointLockTrackerFactory3GetEv.exit, label %init.i

init.i:                                           ; preds = %init.check.i
  store ptr getelementptr inbounds ({ [5 x ptr] }, ptr @_ZTVN7rocksdb23PointLockTrackerFactoryE, i64 0, i32 0, i64 2), ptr @_ZZN7rocksdb23PointLockTrackerFactory3GetEvE8instance, align 8
  tail call void @__cxa_guard_release(ptr nonnull @_ZGVZN7rocksdb23PointLockTrackerFactory3GetEvE8instance) #17
  br label %_ZN7rocksdb23PointLockTrackerFactory3GetEv.exit

_ZN7rocksdb23PointLockTrackerFactory3GetEv.exit:  ; preds = %entry, %init.check.i, %init.i
  tail call void @_ZN7rocksdb19TransactionBaseImplC2EPNS_2DBERKNS_12WriteOptionsERKNS_18LockTrackerFactoryE(ptr noundef nonnull align 8 dereferenceable(320) %this, ptr noundef %call, ptr noundef nonnull align 8 dereferenceable(24) %write_options, ptr noundef nonnull align 8 dereferenceable(8) @_ZZN7rocksdb23PointLockTrackerFactory3GetEvE8instance)
  store ptr getelementptr inbounds ({ [90 x ptr] }, ptr @_ZTVN7rocksdb21OptimisticTransactionE, i64 0, i32 0, i64 2), ptr %this, align 8
  %txn_db_ = getelementptr inbounds i8, ptr %this, i64 320
  store ptr %txn_db, ptr %txn_db_, align 8
  %3 = load i8, ptr %txn_options, align 8
  %4 = and i8 %3, 1
  %tobool.not.i2 = icmp eq i8 %4, 0
  br i1 %tobool.not.i2, label %invoke.cont, label %if.then.i

if.then.i:                                        ; preds = %_ZN7rocksdb23PointLockTrackerFactory3GetEv.exit
  invoke void @_ZN7rocksdb19TransactionBaseImpl11SetSnapshotEv(ptr noundef nonnull align 8 dereferenceable(320) %this)
          to label %invoke.cont unwind label %lpad

invoke.cont:                                      ; preds = %_ZN7rocksdb23PointLockTrackerFactory3GetEv.exit, %if.then.i
  ret void

lpad:                                             ; preds = %if.then.i
  %5 = landingpad { ptr, i32 }
          cleanup
  tail call void @_ZN7rocksdb19TransactionBaseImplD2Ev(ptr noundef nonnull align 8 dereferenceable(320) %this) #17
  resume { ptr, i32 } %5
}